target datalayout = "e-m:e-p270:32:32-p271:32:32-p272:64:64-i64:64-i128:128-f80:128-n8:16:32:64-S128"
target triple = "x86_64-pc-linux-gnu"

%struct.ec_group_st = type { ptr, ptr, %struct.bignum_st, %struct.bignum_st, i32, ptr, %struct.bignum_st, %struct.bignum_st, %struct.bignum_st, i32, ptr, %struct.bignum_st }
%struct.bignum_st = type { ptr, i32, i32, i32, i32 }
%struct.ec_point_st = type { ptr, %struct.bignum_st, %struct.bignum_st, %struct.bignum_st }

@.str = private unnamed_addr constant [119 x i8] c"generated/home/dtcxzyw/WorkSpace/Projects/compilers/llvm-opt-benchmark/bench/libquic/libquic/boringssl/crypto/ec/oct.c\00", align 1

; Function Attrs: nounwind uwtable
define internal i64 @ec_GFp_simple_point2oct(ptr noundef %0, ptr noundef %1, i32 noundef %2, ptr noundef %3, i64 noundef %4, ptr noundef %5) #0 {
  %7 = alloca i64, align 8
  %8 = alloca ptr, align 8
  %9 = alloca ptr, align 8
  %10 = alloca i32, align 4
  %11 = alloca ptr, align 8
  %12 = alloca i64, align 8
  %13 = alloca ptr, align 8
  %14 = alloca i64, align 8
  %15 = alloca ptr, align 8
  %16 = alloca i32, align 4
  %17 = alloca ptr, align 8
  %18 = alloca ptr, align 8
  %19 = alloca i64, align 8
  %20 = alloca i64, align 8
  %21 = alloca i32, align 4
  store ptr %0, ptr %8, align 8, !tbaa !6
  store ptr %1, ptr %9, align 8, !tbaa !11
  store i32 %2, ptr %10, align 4, !tbaa !28
  store ptr %3, ptr %11, align 8, !tbaa !13
  store i64 %4, ptr %12, align 8, !tbaa !15
  store ptr %5, ptr %13, align 8, !tbaa !17
  call void @llvm.lifetime.start.p0(i64 8, ptr %14) #3
  call void @llvm.lifetime.start.p0(i64 8, ptr %15) #3
  store ptr null, ptr %15, align 8, !tbaa !17
  call void @llvm.lifetime.start.p0(i64 4, ptr %16) #3
  store i32 0, ptr %16, align 4, !tbaa !28
  call void @llvm.lifetime.start.p0(i64 8, ptr %17) #3
  call void @llvm.lifetime.start.p0(i64 8, ptr %18) #3
  call void @llvm.lifetime.start.p0(i64 8, ptr %19) #3
  call void @llvm.lifetime.start.p0(i64 8, ptr %20) #3
  %22 = load i32, ptr %10, align 4, !tbaa !28
  %23 = icmp ne i32 %22, 2
  br i1 %23, label %24, label %28

24:                                               ; preds = %6
  %25 = load i32, ptr %10, align 4, !tbaa !28
  %26 = icmp ne i32 %25, 4
  br i1 %26, label %27, label %28

27:                                               ; preds = %24
  call void @ERR_put_error(i32 noundef 15, i32 noundef 0, i32 noundef 111, ptr noundef @.str, i32 noundef 89)
  br label %144

28:                                               ; preds = %24, %6
  %29 = load ptr, ptr %8, align 8, !tbaa !6
  %30 = load ptr, ptr %9, align 8, !tbaa !11
  %31 = call i32 @EC_POINT_is_at_infinity(ptr noundef %29, ptr noundef %30)
  %32 = icmp ne i32 %31, 0
  br i1 %32, label %33, label %34

33:                                               ; preds = %28
  call void @ERR_put_error(i32 noundef 15, i32 noundef 0, i32 noundef 119, ptr noundef @.str, i32 noundef 94)
  br label %144

34:                                               ; preds = %28
  %35 = load ptr, ptr %8, align 8, !tbaa !6
  %36 = getelementptr inbounds nuw %struct.ec_group_st, ptr %35, i32 0, i32 6
  %37 = call i32 @BN_num_bytes(ptr noundef %36)
  %38 = zext i32 %37 to i64
  store i64 %38, ptr %19, align 8, !tbaa !15
  %39 = load i32, ptr %10, align 4, !tbaa !28
  %40 = icmp eq i32 %39, 2
  br i1 %40, label %41, label %44

41:                                               ; preds = %34
  %42 = load i64, ptr %19, align 8, !tbaa !15
  %43 = add i64 1, %42
  br label %48

44:                                               ; preds = %34
  %45 = load i64, ptr %19, align 8, !tbaa !15
  %46 = mul i64 2, %45
  %47 = add i64 1, %46
  br label %48

48:                                               ; preds = %44, %41
  %49 = phi i64 [ %43, %41 ], [ %47, %44 ]
  store i64 %49, ptr %14, align 8, !tbaa !15
  %50 = load ptr, ptr %11, align 8, !tbaa !13
  %51 = icmp ne ptr %50, null
  br i1 %51, label %52, label %136

52:                                               ; preds = %48
  %53 = load i64, ptr %12, align 8, !tbaa !15
  %54 = load i64, ptr %14, align 8, !tbaa !15
  %55 = icmp ult i64 %53, %54
  br i1 %55, label %56, label %57

56:                                               ; preds = %52
  call void @ERR_put_error(i32 noundef 15, i32 noundef 0, i32 noundef 100, ptr noundef @.str, i32 noundef 106)
  br label %144

57:                                               ; preds = %52
  %58 = load ptr, ptr %13, align 8, !tbaa !17
  %59 = icmp eq ptr %58, null
  br i1 %59, label %60, label %66

60:                                               ; preds = %57
  %61 = call ptr @BN_CTX_new()
  store ptr %61, ptr %15, align 8, !tbaa !17
  store ptr %61, ptr %13, align 8, !tbaa !17
  %62 = load ptr, ptr %13, align 8, !tbaa !17
  %63 = icmp eq ptr %62, null
  br i1 %63, label %64, label %65

64:                                               ; preds = %60
  br label %144

65:                                               ; preds = %60
  br label %66

66:                                               ; preds = %65, %57
  %67 = load ptr, ptr %13, align 8, !tbaa !17
  call void @BN_CTX_start(ptr noundef %67)
  store i32 1, ptr %16, align 4, !tbaa !28
  %68 = load ptr, ptr %13, align 8, !tbaa !17
  %69 = call ptr @BN_CTX_get(ptr noundef %68)
  store ptr %69, ptr %17, align 8, !tbaa !30
  %70 = load ptr, ptr %13, align 8, !tbaa !17
  %71 = call ptr @BN_CTX_get(ptr noundef %70)
  store ptr %71, ptr %18, align 8, !tbaa !30
  %72 = load ptr, ptr %18, align 8, !tbaa !30
  %73 = icmp eq ptr %72, null
  br i1 %73, label %74, label %75

74:                                               ; preds = %66
  br label %144

75:                                               ; preds = %66
  %76 = load ptr, ptr %8, align 8, !tbaa !6
  %77 = load ptr, ptr %9, align 8, !tbaa !11
  %78 = load ptr, ptr %17, align 8, !tbaa !30
  %79 = load ptr, ptr %18, align 8, !tbaa !30
  %80 = load ptr, ptr %13, align 8, !tbaa !17
  %81 = call i32 @EC_POINT_get_affine_coordinates_GFp(ptr noundef %76, ptr noundef %77, ptr noundef %78, ptr noundef %79, ptr noundef %80)
  %82 = icmp ne i32 %81, 0
  br i1 %82, label %84, label %83

83:                                               ; preds = %75
  br label %144

84:                                               ; preds = %75
  %85 = load i32, ptr %10, align 4, !tbaa !28
  %86 = icmp eq i32 %85, 2
  br i1 %86, label %87, label %97

87:                                               ; preds = %84
  %88 = load ptr, ptr %18, align 8, !tbaa !30
  %89 = call i32 @BN_is_odd(ptr noundef %88)
  %90 = icmp ne i32 %89, 0
  br i1 %90, label %91, label %97

91:                                               ; preds = %87
  %92 = load i32, ptr %10, align 4, !tbaa !28
  %93 = add i32 %92, 1
  %94 = trunc i32 %93 to i8
  %95 = load ptr, ptr %11, align 8, !tbaa !13
  %96 = getelementptr inbounds i8, ptr %95, i64 0
  store i8 %94, ptr %96, align 1, !tbaa !29
  br label %102

97:                                               ; preds = %87, %84
  %98 = load i32, ptr %10, align 4, !tbaa !28
  %99 = trunc i32 %98 to i8
  %100 = load ptr, ptr %11, align 8, !tbaa !13
  %101 = getelementptr inbounds i8, ptr %100, i64 0
  store i8 %99, ptr %101, align 1, !tbaa !29
  br label %102

102:                                              ; preds = %97, %91
  store i64 1, ptr %20, align 8, !tbaa !15
  %103 = load ptr, ptr %11, align 8, !tbaa !13
  %104 = load i64, ptr %20, align 8, !tbaa !15
  %105 = getelementptr inbounds nuw i8, ptr %103, i64 %104
  %106 = load i64, ptr %19, align 8, !tbaa !15
  %107 = load ptr, ptr %17, align 8, !tbaa !30
  %108 = call i32 @BN_bn2bin_padded(ptr noundef %105, i64 noundef %106, ptr noundef %107)
  %109 = icmp ne i32 %108, 0
  br i1 %109, label %111, label %110

110:                                              ; preds = %102
  call void @ERR_put_error(i32 noundef 15, i32 noundef 0, i32 noundef 68, ptr noundef @.str, i32 noundef 138)
  br label %144

111:                                              ; preds = %102
  %112 = load i64, ptr %19, align 8, !tbaa !15
  %113 = load i64, ptr %20, align 8, !tbaa !15
  %114 = add i64 %113, %112
  store i64 %114, ptr %20, align 8, !tbaa !15
  %115 = load i32, ptr %10, align 4, !tbaa !28
  %116 = icmp eq i32 %115, 4
  br i1 %116, label %117, label %130

117:                                              ; preds = %111
  %118 = load ptr, ptr %11, align 8, !tbaa !13
  %119 = load i64, ptr %20, align 8, !tbaa !15
  %120 = getelementptr inbounds nuw i8, ptr %118, i64 %119
  %121 = load i64, ptr %19, align 8, !tbaa !15
  %122 = load ptr, ptr %18, align 8, !tbaa !30
  %123 = call i32 @BN_bn2bin_padded(ptr noundef %120, i64 noundef %121, ptr noundef %122)
  %124 = icmp ne i32 %123, 0
  br i1 %124, label %126, label %125

125:                                              ; preds = %117
  call void @ERR_put_error(i32 noundef 15, i32 noundef 0, i32 noundef 68, ptr noundef @.str, i32 noundef 145)
  br label %144

126:                                              ; preds = %117
  %127 = load i64, ptr %19, align 8, !tbaa !15
  %128 = load i64, ptr %20, align 8, !tbaa !15
  %129 = add i64 %128, %127
  store i64 %129, ptr %20, align 8, !tbaa !15
  br label %130

130:                                              ; preds = %126, %111
  %131 = load i64, ptr %20, align 8, !tbaa !15
  %132 = load i64, ptr %14, align 8, !tbaa !15
  %133 = icmp ne i64 %131, %132
  br i1 %133, label %134, label %135

134:                                              ; preds = %130
  call void @ERR_put_error(i32 noundef 15, i32 noundef 0, i32 noundef 68, ptr noundef @.str, i32 noundef 152)
  br label %144

135:                                              ; preds = %130
  br label %136

136:                                              ; preds = %135, %48
  %137 = load i32, ptr %16, align 4, !tbaa !28
  %138 = icmp ne i32 %137, 0
  br i1 %138, label %139, label %141

139:                                              ; preds = %136
  %140 = load ptr, ptr %13, align 8, !tbaa !17
  call void @BN_CTX_end(ptr noundef %140)
  br label %141

141:                                              ; preds = %139, %136
  %142 = load ptr, ptr %15, align 8, !tbaa !17
  call void @BN_CTX_free(ptr noundef %142)
  %143 = load i64, ptr %14, align 8, !tbaa !15
  store i64 %143, ptr %7, align 8
  store i32 1, ptr %21, align 4
  br label %151

144:                                              ; preds = %134, %125, %110, %83, %74, %64, %56, %33, %27
  %145 = load i32, ptr %16, align 4, !tbaa !28
  %146 = icmp ne i32 %145, 0
  br i1 %146, label %147, label %149

147:                                              ; preds = %144
  %148 = load ptr, ptr %13, align 8, !tbaa !17
  call void @BN_CTX_end(ptr noundef %148)
  br label %149

149:                                              ; preds = %147, %144
  %150 = load ptr, ptr %15, align 8, !tbaa !17
  call void @BN_CTX_free(ptr noundef %150)
  store i64 0, ptr %7, align 8
  store i32 1, ptr %21, align 4
  br label %151

151:                                              ; preds = %149, %141
  call void @llvm.lifetime.end.p0(i64 8, ptr %20) #3
  call void @llvm.lifetime.end.p0(i64 8, ptr %19) #3
  call void @llvm.lifetime.end.p0(i64 8, ptr %18) #3
  call void @llvm.lifetime.end.p0(i64 8, ptr %17) #3
  call void @llvm.lifetime.end.p0(i64 4, ptr %16) #3
  call void @llvm.lifetime.end.p0(i64 8, ptr %15) #3
  call void @llvm.lifetime.end.p0(i64 8, ptr %14) #3
  %152 = load i64, ptr %7, align 8
  ret i64 %152
}

; Function Attrs: nounwind uwtable
define hidden i64 @EC_POINT_point2oct(ptr noundef %0, ptr noundef %1, i32 noundef %2, ptr noundef %3, i64 noundef %4, ptr noundef %5) #0 {
  %7 = alloca i64, align 8
  %8 = alloca ptr, align 8
  %9 = alloca ptr, align 8
  %10 = alloca i32, align 4
  %11 = alloca ptr, align 8
  %12 = alloca i64, align 8
  %13 = alloca ptr, align 8
  store ptr %0, ptr %8, align 8, !tbaa !6
  store ptr %1, ptr %9, align 8, !tbaa !11
  store i32 %2, ptr %10, align 4, !tbaa !28
  store ptr %3, ptr %11, align 8, !tbaa !13
  store i64 %4, ptr %12, align 8, !tbaa !15
  store ptr %5, ptr %13, align 8, !tbaa !17
  %14 = load ptr, ptr %8, align 8, !tbaa !6
  %15 = getelementptr inbounds nuw %struct.ec_group_st, ptr %14, i32 0, i32 0
  %16 = load ptr, ptr %15, align 8, !tbaa !19
  %17 = load ptr, ptr %9, align 8, !tbaa !11
  %18 = getelementptr inbounds nuw %struct.ec_point_st, ptr %17, i32 0, i32 0
  %19 = load ptr, ptr %18, align 8, !tbaa !26
  %20 = icmp ne ptr %16, %19
  br i1 %20, label %21, label %22

21:                                               ; preds = %6
  call void @ERR_put_error(i32 noundef 15, i32 noundef 0, i32 noundef 106, ptr noundef @.str, i32 noundef 266)
  store i64 0, ptr %7, align 8
  br label %30

22:                                               ; preds = %6
  %23 = load ptr, ptr %8, align 8, !tbaa !6
  %24 = load ptr, ptr %9, align 8, !tbaa !11
  %25 = load i32, ptr %10, align 4, !tbaa !28
  %26 = load ptr, ptr %11, align 8, !tbaa !13
  %27 = load i64, ptr %12, align 8, !tbaa !15
  %28 = load ptr, ptr %13, align 8, !tbaa !17
  %29 = call i64 @ec_GFp_simple_point2oct(ptr noundef %23, ptr noundef %24, i32 noundef %25, ptr noundef %26, i64 noundef %27, ptr noundef %28)
  store i64 %29, ptr %7, align 8
  br label %30

30:                                               ; preds = %22, %21
  %31 = load i64, ptr %7, align 8
  ret i64 %31
}