; Function Attrs: nounwind uwtable
define hidden range(i64 0, 8589934592) i64 @EC_POINT_point2oct(ptr noundef %0, ptr noundef %1, i32 noundef %2, ptr noundef %3, i64 noundef %4, ptr noundef %5) local_unnamed_addr #0 {
  %7 = load ptr, ptr %0, align 8, !tbaa !6
  %8 = load ptr, ptr %1, align 8, !tbaa !17
  %.not = icmp eq ptr %7, %8
  br i1 %.not, label %10, label %9

9:                                                ; preds = %6
  tail call void @ERR_put_error(i32 noundef 15, i32 noundef 0, i32 noundef 106, ptr noundef nonnull @.str, i32 noundef 266) #3
  br label %56

10:                                               ; preds = %6
  switch i32 %2, label %11 [
    i32 4, label %12
    i32 2, label %12
  ]

11:                                               ; preds = %10
  tail call void @ERR_put_error(i32 noundef 15, i32 noundef 0, i32 noundef 111, ptr noundef nonnull @.str, i32 noundef 89) #3
  br label %ec_GFp_simple_point2oct.exit

12:                                               ; preds = %10, %10
  %13 = tail call i32 @EC_POINT_is_at_infinity(ptr noundef nonnull %0, ptr noundef nonnull %1) #3
  %.not.i = icmp eq i32 %13, 0
  br i1 %.not.i, label %15, label %14

14:                                               ; preds = %12
  tail call void @ERR_put_error(i32 noundef 15, i32 noundef 0, i32 noundef 119, ptr noundef nonnull @.str, i32 noundef 94) #3
  br label %ec_GFp_simple_point2oct.exit

15:                                               ; preds = %12
  %16 = getelementptr inbounds nuw i8, ptr %0, i64 80
  %17 = tail call i32 @BN_num_bytes(ptr noundef nonnull %16) #3
  %18 = zext i32 %17 to i64
  %19 = icmp eq i32 %2, 2
  %20 = add nuw nsw i64 %18, 1
  %21 = shl nuw nsw i64 %18, 1
  %22 = or disjoint i64 %21, 1
  %23 = select i1 %19, i64 %20, i64 %22
  %.not65.i = icmp eq ptr %3, null
  br i1 %.not65.i, label %ec_GFp_simple_point2oct.exit, label %24

24:                                               ; preds = %15
  %25 = icmp ult i64 %4, %23
  br i1 %25, label %26, label %27

26:                                               ; preds = %24
  tail call void @ERR_put_error(i32 noundef 15, i32 noundef 0, i32 noundef 100, ptr noundef nonnull @.str, i32 noundef 106) #3
  br label %ec_GFp_simple_point2oct.exit

27:                                               ; preds = %24
  %28 = icmp eq ptr %5, null
  br i1 %28, label %29, label %32

29:                                               ; preds = %27
  %30 = tail call ptr @BN_CTX_new() #3
  %31 = icmp eq ptr %30, null
  br i1 %31, label %ec_GFp_simple_point2oct.exit, label %32

32:                                               ; preds = %29, %27
  %.255.i = phi ptr [ %30, %29 ], [ null, %27 ]
  %.2.i = phi ptr [ %30, %29 ], [ %5, %27 ]
  tail call void @BN_CTX_start(ptr noundef nonnull %.2.i) #3
  %33 = tail call ptr @BN_CTX_get(ptr noundef nonnull %.2.i) #3
  %34 = tail call ptr @BN_CTX_get(ptr noundef nonnull %.2.i) #3
  %35 = icmp eq ptr %34, null
  br i1 %35, label %55, label %36

36:                                               ; preds = %32
  %37 = tail call i32 @EC_POINT_get_affine_coordinates_GFp(ptr noundef nonnull %0, ptr noundef nonnull %1, ptr noundef %33, ptr noundef nonnull %34, ptr noundef nonnull %.2.i) #3
  %.not66.i = icmp eq i32 %37, 0
  br i1 %.not66.i, label %55, label %38

38:                                               ; preds = %36
  br i1 %19, label %39, label %41

39:                                               ; preds = %38
  %40 = tail call i32 @BN_is_odd(ptr noundef nonnull %34) #3
  %.not67.i = icmp eq i32 %40, 0
  br i1 %.not67.i, label %41, label %43

41:                                               ; preds = %39, %38
  %42 = trunc nuw i32 %2 to i8
  br label %43

43:                                               ; preds = %41, %39
  %storemerge.i = phi i8 [ %42, %41 ], [ 3, %39 ]
  store i8 %storemerge.i, ptr %3, align 1, !tbaa !19
  %44 = getelementptr inbounds nuw i8, ptr %3, i64 1
  %45 = tail call i32 @BN_bn2bin_padded(ptr noundef nonnull %44, i64 noundef %18, ptr noundef %33) #3
  %.not68.i = icmp eq i32 %45, 0
  br i1 %.not68.i, label %.sink.split.i, label %46

46:                                               ; preds = %43
  %47 = icmp eq i32 %2, 4
  br i1 %47, label %48, label %53

48:                                               ; preds = %46
  %49 = getelementptr inbounds nuw i8, ptr %3, i64 %20
  %50 = tail call i32 @BN_bn2bin_padded(ptr noundef nonnull %49, i64 noundef %18, ptr noundef nonnull %34) #3
  %.not69.i = icmp eq i32 %50, 0
  br i1 %.not69.i, label %.sink.split.i, label %51

51:                                               ; preds = %48
  %52 = add nuw nsw i64 %20, %18
  br label %53

53:                                               ; preds = %51, %46
  %.0.i = phi i64 [ %52, %51 ], [ %20, %46 ]
  %.not70.i = icmp eq i64 %.0.i, %23
  br i1 %.not70.i, label %54, label %.sink.split.i

54:                                               ; preds = %53
  tail call void @BN_CTX_end(ptr noundef nonnull %.2.i) #3
  br label %ec_GFp_simple_point2oct.exit

.sink.split.i:                                    ; preds = %53, %48, %43
  %.sink.i = phi i32 [ 138, %43 ], [ 145, %48 ], [ 152, %53 ]
  tail call void @ERR_put_error(i32 noundef 15, i32 noundef 0, i32 noundef 68, ptr noundef nonnull @.str, i32 noundef %.sink.i) #3
  br label %55

55:                                               ; preds = %.sink.split.i, %36, %32
  tail call void @BN_CTX_end(ptr noundef nonnull %.2.i) #3
  br label %ec_GFp_simple_point2oct.exit

ec_GFp_simple_point2oct.exit:                     ; preds = %11, %14, %15, %26, %29, %54, %55
  %.05381.sink.i = phi ptr [ %.255.i, %54 ], [ null, %15 ], [ %.255.i, %55 ], [ null, %11 ], [ null, %14 ], [ null, %26 ], [ null, %29 ]
  %.051.i = phi i64 [ %23, %54 ], [ %23, %15 ], [ 0, %55 ], [ 0, %11 ], [ 0, %14 ], [ 0, %26 ], [ 0, %29 ]
  tail call void @BN_CTX_free(ptr noundef %.05381.sink.i) #3
  br label %56

56:                                               ; preds = %ec_GFp_simple_point2oct.exit, %9
  %.0 = phi i64 [ 0, %9 ], [ %.051.i, %ec_GFp_simple_point2oct.exit ]
  ret i64 %.0
}